target datalayout = "e-m:e-p270:32:32-p271:32:32-p272:64:64-i64:64-i128:128-f80:128-n8:16:32:64-S128"
target triple = "x86_64-pc-linux-gnu"

%"class.tl::expected" = type { %"struct.tl::detail::expected_move_assign_base.base.88", [7 x i8] }
%"struct.tl::detail::expected_move_assign_base.base.88" = type { %"struct.tl::detail::expected_copy_assign_base.base.87" }
%"struct.tl::detail::expected_copy_assign_base.base.87" = type { %"struct.tl::detail::expected_move_base.base.86" }
%"struct.tl::detail::expected_move_base.base.86" = type { %"struct.tl::detail::expected_copy_base.base.85" }
%"struct.tl::detail::expected_copy_base.base.85" = type { %"struct.tl::detail::expected_operations_base.base.84" }
%"struct.tl::detail::expected_operations_base.base.84" = type { %"struct.tl::detail::expected_storage_base.base.83" }
%"struct.tl::detail::expected_storage_base.base.83" = type <{ %union.anon.38, i8 }>
%union.anon.38 = type { %"class.LIEF::PE::ResourceVersion" }
%"class.LIEF::PE::ResourceVersion" = type { %"class.LIEF::Object", i16, %"class.std::__cxx11::basic_string.39", %"struct.LIEF::PE::ResourceVersion::fixed_file_info_t", [4 x i8], %"class.LIEF::optional", %"class.LIEF::optional.57" }
%"class.LIEF::Object" = type { ptr }
%"class.std::__cxx11::basic_string.39" = type { %"struct.std::__cxx11::basic_string<char16_t>::_Alloc_hider", i64, %union.anon.43 }
%"struct.std::__cxx11::basic_string<char16_t>::_Alloc_hider" = type { ptr }
%union.anon.43 = type { i64, [8 x i8] }
%"struct.LIEF::PE::ResourceVersion::fixed_file_info_t" = type { i32, i32, i32, i32, i32, i32, i32, i32, i32, i32, i32, i32, i32 }
%"class.LIEF::optional" = type { %"class.tl::expected.base", [7 x i8] }
%"class.tl::expected.base" = type { %"struct.tl::detail::expected_move_assign_base.base" }
%"struct.tl::detail::expected_move_assign_base.base" = type { %"struct.tl::detail::expected_copy_assign_base.base" }
%"struct.tl::detail::expected_copy_assign_base.base" = type { %"struct.tl::detail::expected_move_base.base" }
%"struct.tl::detail::expected_move_base.base" = type { %"struct.tl::detail::expected_copy_base.base" }
%"struct.tl::detail::expected_copy_base.base" = type { %"struct.tl::detail::expected_operations_base.base" }
%"struct.tl::detail::expected_operations_base.base" = type { %"struct.tl::detail::expected_storage_base.base" }
%"struct.tl::detail::expected_storage_base.base" = type <{ %union.anon.51, i8 }>
%union.anon.51 = type { %"class.LIEF::PE::ResourceStringFileInfo" }
%"class.LIEF::PE::ResourceStringFileInfo" = type { %"class.LIEF::Object", i16, %"class.std::__cxx11::basic_string.39", %"class.std::vector.52" }
%"class.std::vector.52" = type { %"struct.std::_Vector_base.53" }
%"struct.std::_Vector_base.53" = type { %"struct.std::_Vector_base<LIEF::PE::ResourceStringTable, std::allocator<LIEF::PE::ResourceStringTable>>::_Vector_impl" }
%"struct.std::_Vector_base<LIEF::PE::ResourceStringTable, std::allocator<LIEF::PE::ResourceStringTable>>::_Vector_impl" = type { %"struct.std::_Vector_base<LIEF::PE::ResourceStringTable, std::allocator<LIEF::PE::ResourceStringTable>>::_Vector_impl_data" }
%"struct.std::_Vector_base<LIEF::PE::ResourceStringTable, std::allocator<LIEF::PE::ResourceStringTable>>::_Vector_impl_data" = type { ptr, ptr, ptr }
%"class.LIEF::optional.57" = type { %"class.tl::expected.base.81", [7 x i8] }
%"class.tl::expected.base.81" = type { %"struct.tl::detail::expected_move_assign_base.base.76" }
%"struct.tl::detail::expected_move_assign_base.base.76" = type { %"struct.tl::detail::expected_copy_assign_base.base.75" }
%"struct.tl::detail::expected_copy_assign_base.base.75" = type { %"struct.tl::detail::expected_move_base.base.74" }
%"struct.tl::detail::expected_move_base.base.74" = type { %"struct.tl::detail::expected_copy_base.base.73" }
%"struct.tl::detail::expected_copy_base.base.73" = type { %"struct.tl::detail::expected_operations_base.base.72" }
%"struct.tl::detail::expected_operations_base.base.72" = type { %"struct.tl::detail::expected_storage_base.base.71" }
%"struct.tl::detail::expected_storage_base.base.71" = type <{ %union.anon.65, i8 }>
%union.anon.65 = type { %"class.LIEF::PE::ResourceVarFileInfo" }
%"class.LIEF::PE::ResourceVarFileInfo" = type { %"class.LIEF::Object", i16, %"class.std::__cxx11::basic_string.39", %"class.std::vector.66" }
%"class.std::vector.66" = type { %"struct.std::_Vector_base.67" }
%"struct.std::_Vector_base.67" = type { %"struct.std::_Vector_base<LIEF::PE::ResourceVar, std::allocator<LIEF::PE::ResourceVar>>::_Vector_impl" }
%"struct.std::_Vector_base<LIEF::PE::ResourceVar, std::allocator<LIEF::PE::ResourceVar>>::_Vector_impl" = type { %"struct.std::_Vector_base<LIEF::PE::ResourceVar, std::allocator<LIEF::PE::ResourceVar>>::_Vector_impl_data" }
%"struct.std::_Vector_base<LIEF::PE::ResourceVar, std::allocator<LIEF::PE::ResourceVar>>::_Vector_impl_data" = type { ptr, ptr, ptr }
%"class.tcb::span" = type { %"struct.tcb::detail::span_storage" }
%"struct.tcb::detail::span_storage" = type { ptr, i64 }
%"class.LIEF::SpanStream" = type { %"class.LIEF::BinaryStream", %"class.tcb::span" }
%"class.LIEF::BinaryStream" = type { ptr, i64, i8, i32 }

; Function Attrs: mustprogress nounwind uwtable
define linkonce_odr hidden void @_ZN3tcb6detail12span_storageIKhLm18446744073709551615EEC2EPS2_m(ptr noundef nonnull align 8 dereferenceable(16) %0, ptr noundef %1, i64 noundef %2) unnamed_addr #1 comdat align 2 {
  %4 = alloca ptr, align 8
  %5 = alloca ptr, align 8
  %6 = alloca i64, align 8
  store ptr %0, ptr %4, align 8, !tbaa !231
  store ptr %1, ptr %5, align 8, !tbaa !11
  store i64 %2, ptr %6, align 8, !tbaa !13
  %7 = load ptr, ptr %4, align 8
  %8 = getelementptr inbounds nuw %"struct.tcb::detail::span_storage", ptr %7, i32 0, i32 0
  %9 = load ptr, ptr %5, align 8, !tbaa !11
  store ptr %9, ptr %8, align 8, !tbaa !233
  %10 = getelementptr inbounds nuw %"struct.tcb::detail::span_storage", ptr %7, i32 0, i32 1
  %11 = load i64, ptr %6, align 8, !tbaa !13
  store i64 %11, ptr %10, align 8, !tbaa !234
  ret void
}

; Function Attrs: mustprogress nounwind uwtable
define linkonce_odr hidden void @_ZN3tcb4spanIKhLm18446744073709551615EEC2EPS1_S3_(ptr noundef nonnull align 8 dereferenceable(16) %0, ptr noundef %1, ptr noundef %2) unnamed_addr #1 comdat align 2 {
  %4 = alloca ptr, align 8
  %5 = alloca ptr, align 8
  %6 = alloca ptr, align 8
  store ptr %0, ptr %4, align 8, !tbaa !17
  store ptr %1, ptr %5, align 8, !tbaa !11
  store ptr %2, ptr %6, align 8, !tbaa !11
  %7 = load ptr, ptr %4, align 8
  %8 = getelementptr inbounds nuw %"class.tcb::span", ptr %7, i32 0, i32 0
  %9 = load ptr, ptr %5, align 8, !tbaa !11
  %10 = load ptr, ptr %6, align 8, !tbaa !11
  %11 = load ptr, ptr %5, align 8, !tbaa !11
  %12 = ptrtoint ptr %10 to i64
  %13 = ptrtoint ptr %11 to i64
  %14 = sub i64 %12, %13
  call void @_ZN3tcb6detail12span_storageIKhLm18446744073709551615EEC2EPS2_m(ptr noundef nonnull align 8 dereferenceable(16) %8, ptr noundef %9, i64 noundef %14) #21
  ret void
}

; Function Attrs: mustprogress nounwind uwtable
define linkonce_odr hidden void @_ZN4LIEF12BinaryStreamC2ENS0_11STREAM_TYPEE(ptr noundef nonnull align 8 dereferenceable(24) %0, i32 noundef %1) unnamed_addr #1 comdat align 2 {
  %3 = alloca ptr, align 8
  %4 = alloca i32, align 4
  store ptr %0, ptr %3, align 8, !tbaa !33
  store i32 %1, ptr %4, align 4, !tbaa !253
  %5 = load ptr, ptr %3, align 8
  store ptr getelementptr inbounds inrange(-16, 104) ({ [15 x ptr] }, ptr @_ZTVN4LIEF12BinaryStreamE, i32 0, i32 0, i32 2), ptr %5, align 8, !tbaa !31
  %6 = getelementptr inbounds nuw %"class.LIEF::BinaryStream", ptr %5, i32 0, i32 1
  store i64 0, ptr %6, align 8, !tbaa !105
  %7 = getelementptr inbounds nuw %"class.LIEF::BinaryStream", ptr %5, i32 0, i32 2
  store i8 0, ptr %7, align 8, !tbaa !172
  %8 = getelementptr inbounds nuw %"class.LIEF::BinaryStream", ptr %5, i32 0, i32 3
  %9 = load i32, ptr %4, align 4, !tbaa !253
  store i32 %9, ptr %8, align 4, !tbaa !254
  ret void
}

; Function Attrs: mustprogress nounwind uwtable
define linkonce_odr hidden void @_ZN4LIEF12BinaryStreamD2Ev(ptr noundef nonnull align 8 dereferenceable(24) %0) unnamed_addr #1 comdat align 2 {
  %2 = alloca ptr, align 8
  store ptr %0, ptr %2, align 8, !tbaa !33
  ret void
}

; Function Attrs: mustprogress nounwind uwtable
define linkonce_odr hidden void @_ZN4LIEF10SpanStreamC2EPKhm(ptr noundef nonnull align 8 dereferenceable(40) %0, ptr noundef %1, i64 noundef %2) unnamed_addr #1 comdat align 2 {
  %4 = alloca ptr, align 8
  %5 = alloca ptr, align 8
  %6 = alloca i64, align 8
  store ptr %0, ptr %4, align 8, !tbaa !29
  store ptr %1, ptr %5, align 8, !tbaa !11
  store i64 %2, ptr %6, align 8, !tbaa !13
  %7 = load ptr, ptr %4, align 8
  call void @_ZN4LIEF12BinaryStreamC2ENS0_11STREAM_TYPEE(ptr noundef nonnull align 8 dereferenceable(24) %7, i32 noundef 3)
  store ptr getelementptr inbounds inrange(-16, 104) ({ [15 x ptr] }, ptr @_ZTVN4LIEF10SpanStreamE, i32 0, i32 0, i32 2), ptr %7, align 8, !tbaa !31
  %8 = getelementptr inbounds nuw %"class.LIEF::SpanStream", ptr %7, i32 0, i32 1
  %9 = load ptr, ptr %5, align 8, !tbaa !11
  %10 = load ptr, ptr %5, align 8, !tbaa !11
  %11 = load i64, ptr %6, align 8, !tbaa !13
  %12 = getelementptr inbounds nuw i8, ptr %10, i64 %11
  call void @_ZN3tcb4spanIKhLm18446744073709551615EEC2EPS1_S3_(ptr noundef nonnull align 8 dereferenceable(16) %8, ptr noundef %9, ptr noundef %12)
  ret void
}

; Function Attrs: mustprogress nounwind uwtable
define void @_ZN4LIEF2PE15ResourceVersion5parseEPKhm(ptr dead_on_unwind noalias writable sret(%"class.tl::expected") align 8 %0, ptr noundef %1, i64 noundef %2) #1 align 2 {
  %4 = alloca ptr, align 8
  %5 = alloca ptr, align 8
  %6 = alloca i64, align 8
  %7 = alloca %"class.LIEF::SpanStream", align 8
  store ptr %0, ptr %4, align 8
  store ptr %1, ptr %5, align 8, !tbaa !11
  store i64 %2, ptr %6, align 8, !tbaa !13
  call void @llvm.lifetime.start.p0(i64 40, ptr %7) #21
  %8 = load ptr, ptr %5, align 8, !tbaa !11
  %9 = load i64, ptr %6, align 8, !tbaa !13
  call void @_ZN4LIEF10SpanStreamC2EPKhm(ptr noundef nonnull align 8 dereferenceable(40) %7, ptr noundef %8, i64 noundef %9)
  call void @_ZN4LIEF2PE15ResourceVersion5parseERNS_12BinaryStreamE(ptr dead_on_unwind writable sret(%"class.tl::expected") align 8 %0, ptr noundef nonnull align 8 dereferenceable(24) %7)
  call void @_ZN4LIEF12BinaryStreamD2Ev(ptr noundef nonnull align 8 dereferenceable(40) %7) #21
  call void @llvm.lifetime.end.p0(i64 40, ptr %7) #21
  ret void
}