; Function Attrs: mustprogress nounwind uwtable
define void @_ZN4LIEF2PE15ResourceVersion5parseEPKhm(ptr dead_on_unwind noalias writable sret(%"class.tl::expected") align 8 %0, ptr noundef %1, i64 noundef %2) local_unnamed_addr #1 align 2 {
  %4 = alloca %"class.LIEF::SpanStream", align 8
  call void @llvm.lifetime.start.p0(i64 40, ptr nonnull %4) #22
  %5 = getelementptr inbounds nuw i8, ptr %4, i64 8
  store i64 0, ptr %5, align 8, !tbaa !19
  %6 = getelementptr inbounds nuw i8, ptr %4, i64 16
  store i8 0, ptr %6, align 8, !tbaa !23
  %7 = getelementptr inbounds nuw i8, ptr %4, i64 20
  store i32 3, ptr %7, align 4, !tbaa !24
  store ptr getelementptr inbounds nuw inrange(-16, 104) (i8, ptr @_ZTVN4LIEF10SpanStreamE, i64 16), ptr %4, align 8, !tbaa !25
  %8 = getelementptr inbounds nuw i8, ptr %4, i64 24
  store ptr %1, ptr %8, align 8, !tbaa !27
  %9 = getelementptr inbounds nuw i8, ptr %4, i64 32
  store i64 %2, ptr %9, align 8, !tbaa !29
  call void @_ZN4LIEF2PE15ResourceVersion5parseERNS_12BinaryStreamE(ptr dead_on_unwind writable sret(%"class.tl::expected") align 8 %0, ptr noundef nonnull align 8 dereferenceable(24) %4)
  call void @llvm.lifetime.end.p0(i64 40, ptr nonnull %4) #22
  ret void
}